target datalayout = "e-m:e-p270:32:32-p271:32:32-p272:64:64-i64:64-i128:128-f80:128-n8:16:32:64-S128"
target triple = "x86_64-pc-linux-gnu"

%struct.Vmem = type { ptr, i64, i64 }
%struct.ParseContext_ = type { %struct.TokenData, i32, %union.SourceSpan, %union.SourceSpan, ptr, %struct.Lexer }
%struct.TokenData = type { ptr, i64, %union.anon.86 }
%union.anon.86 = type { %struct.anon.89 }
%struct.anon.89 = type { %struct.Int128_, i8 }
%struct.Int128_ = type { i64, i64 }
%union.SourceSpan = type { i64 }
%struct.Lexer = type { ptr, ptr, ptr, ptr, i32, i32, ptr, ptr, ptr, %struct.TokenData, %union.SourceSpan, i32, i32 }
%struct.Ast_ = type { %union.SourceSpan, i32, i8, %union.anon.62 }
%union.anon.62 = type { %struct.AstDocDirective_ }
%struct.AstDocDirective_ = type { i8, %union.anon.65 }
%union.anon.65 = type { %struct.anon.66 }
%struct.anon.66 = type { ptr, %union.SourceSpan, i8 }
%struct.VHeader_ = type { i32, i32, [0 x i8] }
%struct.Decl_ = type { ptr, ptr, %union.SourceSpan, i64, %union.anon, i32, %union.anon.1, i64, ptr, ptr, ptr, %union.anon.2 }
%union.anon = type { ptr }
%union.anon.1 = type { i16 }
%union.anon.2 = type { %struct.FuncDecl }
%struct.FuncDecl = type { i32, [4 x i8], %struct.Signature_, i32, i32, %union.anon.9 }
%struct.Signature_ = type <{ %struct.CalleeAttributes, i16, i8, i32, i32, [4 x i8], ptr }>
%struct.CalleeAttributes = type { i8 }
%union.anon.9 = type { %struct.anon.10 }
%struct.anon.10 = type { i16, %union.anon.11 }
%union.anon.11 = type { ptr }
%struct.anon.0 = type { i16, i8, i8, i32 }

@poisoned_ast = external global ptr, align 8
@.str.11 = private unnamed_addr constant [13 x i8] c"Expected ';'\00", align 1
@ast_arena = external global %struct.Vmem, align 8

; Function Attrs: nounwind uwtable
define internal i64 @extend_span_with_token(i64 %0, i64 %1) #0 {
  %3 = alloca %union.SourceSpan, align 8
  %4 = alloca %union.SourceSpan, align 8
  %5 = alloca %union.SourceSpan, align 8
  %6 = getelementptr inbounds %union.SourceSpan, ptr %4, i32 0, i32 0
  store i64 %0, ptr %6, align 8
  %7 = getelementptr inbounds %union.SourceSpan, ptr %5, i32 0, i32 0
  store i64 %1, ptr %7, align 8
  %8 = getelementptr inbounds %struct.anon.0, ptr %4, i32 0, i32 3
  %9 = load i32, ptr %8, align 4
  %10 = getelementptr inbounds %struct.anon.0, ptr %5, i32 0, i32 3
  %11 = load i32, ptr %10, align 4
  %12 = icmp ne i32 %9, %11
  br i1 %12, label %13, label %14

13:                                               ; preds = %2
  call void @llvm.memcpy.p0.p0.i64(ptr align 8 %3, ptr align 8 %4, i64 8, i1 false)
  br label %28

14:                                               ; preds = %2
  %15 = getelementptr inbounds %struct.anon.0, ptr %5, i32 0, i32 2
  %16 = load i8, ptr %15, align 1
  %17 = zext i8 %16 to i32
  %18 = getelementptr inbounds %struct.anon.0, ptr %5, i32 0, i32 1
  %19 = load i8, ptr %18, align 2
  %20 = zext i8 %19 to i32
  %21 = add nsw i32 %17, %20
  %22 = getelementptr inbounds %struct.anon.0, ptr %4, i32 0, i32 2
  %23 = load i8, ptr %22, align 1
  %24 = zext i8 %23 to i32
  %25 = sub nsw i32 %21, %24
  %26 = trunc i32 %25 to i8
  %27 = getelementptr inbounds %struct.anon.0, ptr %4, i32 0, i32 1
  store i8 %26, ptr %27, align 2
  call void @llvm.memcpy.p0.p0.i64(ptr align 8 %3, ptr align 8 %4, i64 8, i1 false)
  br label %28

28:                                               ; preds = %14, %13
  %29 = getelementptr inbounds %union.SourceSpan, ptr %3, i32 0, i32 0
  %30 = load i64, ptr %29, align 8
  ret i64 %30
}

; Function Attrs: nounwind uwtable
define internal ptr @ast_calloc() #0 {
  %1 = call ptr @vmem_alloc(ptr noundef @ast_arena, i64 noundef 48)
  ret ptr %1
}

; Function Attrs: nounwind uwtable
define internal ptr @parse_declaration_stmt(ptr noundef %0) #0 {
  %2 = alloca ptr, align 8
  %3 = alloca ptr, align 8
  %4 = alloca ptr, align 8
  %5 = alloca i32, align 4
  %6 = alloca ptr, align 8
  %7 = alloca i32, align 4
  %8 = alloca ptr, align 8
  %9 = alloca i32, align 4
  %10 = alloca %union.SourceSpan, align 8
  %11 = alloca i32, align 4
  %12 = alloca ptr, align 8
  %13 = alloca i32, align 4
  %14 = alloca ptr, align 8
  %15 = alloca ptr, align 8
  %16 = alloca ptr, align 8
  %17 = alloca ptr, align 8
  %18 = alloca ptr, align 8
  %19 = alloca ptr, align 8
  %20 = alloca ptr, align 8
  %21 = alloca %union.SourceSpan, align 8
  %22 = alloca i8, align 1
  %23 = alloca i8, align 1
  %24 = alloca ptr, align 8
  %25 = alloca ptr, align 8
  %26 = alloca ptr, align 8
  %27 = alloca ptr, align 8
  %28 = alloca ptr, align 8
  %29 = alloca i32, align 4
  %30 = alloca i32, align 4
  %31 = alloca ptr, align 8
  store ptr %0, ptr %18, align 8
  %32 = load ptr, ptr %18, align 8
  store ptr %32, ptr %4, align 8
  store i32 111, ptr %5, align 4
  %33 = load ptr, ptr %4, align 8
  %34 = getelementptr inbounds %struct.ParseContext_, ptr %33, i32 0, i32 1
  %35 = load i32, ptr %34, align 8
  %36 = load i32, ptr %5, align 4
  %37 = icmp eq i32 %35, %36
  br i1 %37, label %38, label %108

38:                                               ; preds = %1
  %39 = load ptr, ptr %18, align 8
  %40 = getelementptr inbounds %struct.ParseContext_, ptr %39, i32 0, i32 2
  %41 = getelementptr inbounds %union.SourceSpan, ptr %40, i32 0, i32 0
  %42 = load i64, ptr %41, align 8
  store i64 %42, ptr %10, align 8
  store i32 15, ptr %11, align 4
  %43 = call ptr @ast_calloc()
  store ptr %43, ptr %12, align 8
  %44 = load ptr, ptr %12, align 8
  call void @llvm.memcpy.p0.p0.i64(ptr align 8 %44, ptr align 8 %10, i64 8, i1 false)
  %45 = load i32, ptr %11, align 4
  %46 = load ptr, ptr %12, align 8
  %47 = getelementptr inbounds %struct.Ast_, ptr %46, i32 0, i32 2
  %48 = trunc i32 %45 to i8
  store i8 %48, ptr %47, align 4
  %49 = load ptr, ptr %12, align 8
  store ptr %49, ptr %19, align 8
  %50 = load ptr, ptr %18, align 8
  %51 = call ptr @parse_const_declaration(ptr noundef %50, i1 noundef zeroext false, i1 noundef zeroext false)
  store ptr %51, ptr %20, align 8
  %52 = load ptr, ptr %20, align 8
  store ptr %52, ptr %3, align 8
  %53 = load ptr, ptr %3, align 8
  %54 = icmp ne ptr %53, null
  br i1 %54, label %55, label %62

55:                                               ; preds = %38
  %56 = load ptr, ptr %3, align 8
  %57 = getelementptr inbounds %struct.Decl_, ptr %56, i32 0, i32 3
  %58 = load i64, ptr %57, align 8
  %59 = and i64 %58, 127
  %60 = trunc i64 %59 to i32
  %61 = icmp ne i32 %60, 0
  br label %62

62:                                               ; preds = %55, %38
  %63 = phi i1 [ true, %38 ], [ %61, %55 ]
  br i1 %63, label %66, label %64

64:                                               ; preds = %62
  %65 = load ptr, ptr @poisoned_ast, align 8
  store ptr %65, ptr %17, align 8
  br label %281

66:                                               ; preds = %62
  %67 = load ptr, ptr %20, align 8
  %68 = load ptr, ptr %19, align 8
  %69 = getelementptr inbounds %struct.Ast_, ptr %68, i32 0, i32 3
  store ptr %67, ptr %69, align 8
  %70 = load ptr, ptr %19, align 8
  %71 = getelementptr inbounds %struct.Ast_, ptr %70, i32 0, i32 3
  %72 = load ptr, ptr %71, align 8
  %73 = getelementptr inbounds %struct.Decl_, ptr %72, i32 0, i32 3
  %74 = load i64, ptr %73, align 8
  %75 = and i64 %74, -7169
  %76 = or i64 %75, 2048
  store i64 %76, ptr %73, align 8
  br label %77

77:                                               ; preds = %66
  %78 = load ptr, ptr %19, align 8
  %79 = getelementptr inbounds %struct.Ast_, ptr %78, i32 0, i32 0
  %80 = load ptr, ptr %19, align 8
  %81 = getelementptr inbounds %struct.Ast_, ptr %80, i32 0, i32 0
  %82 = load ptr, ptr %18, align 8
  %83 = getelementptr inbounds %struct.ParseContext_, ptr %82, i32 0, i32 3
  %84 = getelementptr inbounds %union.SourceSpan, ptr %81, i32 0, i32 0
  %85 = load i64, ptr %84, align 8
  %86 = getelementptr inbounds %union.SourceSpan, ptr %83, i32 0, i32 0
  %87 = load i64, ptr %86, align 8
  %88 = call i64 @extend_span_with_token(i64 %85, i64 %87)
  %89 = getelementptr inbounds %union.SourceSpan, ptr %21, i32 0, i32 0
  store i64 %88, ptr %89, align 8
  call void @llvm.memcpy.p0.p0.i64(ptr align 8 %79, ptr align 8 %21, i64 8, i1 false)
  br label %90

90:                                               ; preds = %77
  br label %91

91:                                               ; preds = %90
  %92 = load ptr, ptr %18, align 8
  store ptr %92, ptr %6, align 8
  store i32 9, ptr %7, align 4
  %93 = load ptr, ptr %6, align 8
  %94 = getelementptr inbounds %struct.ParseContext_, ptr %93, i32 0, i32 1
  %95 = load i32, ptr %94, align 8
  %96 = load i32, ptr %7, align 4
  %97 = icmp eq i32 %95, %96
  br i1 %97, label %104, label %98

98:                                               ; preds = %91
  %99 = load ptr, ptr %18, align 8
  %100 = getelementptr inbounds %struct.ParseContext_, ptr %99, i32 0, i32 3
  %101 = getelementptr inbounds %union.SourceSpan, ptr %100, i32 0, i32 0
  %102 = load i64, ptr %101, align 8
  call void (i64, ptr, ...) @sema_error_at_after(i64 %102, ptr noundef @.str.11)
  %103 = load ptr, ptr @poisoned_ast, align 8
  store ptr %103, ptr %17, align 8
  br label %281

104:                                              ; preds = %91
  %105 = load ptr, ptr %18, align 8
  call void @advance(ptr noundef %105)
  br label %106

106:                                              ; preds = %104
  %107 = load ptr, ptr %19, align 8
  store ptr %107, ptr %17, align 8
  br label %281

108:                                              ; preds = %1
  %109 = load ptr, ptr %18, align 8
  %110 = call zeroext i1 @try_consume(ptr noundef %109, i32 noundef 127)
  %111 = zext i1 %110 to i8
  store i8 %111, ptr %22, align 1
  %112 = load i8, ptr %22, align 1
  %113 = trunc i8 %112 to i1
  br i1 %113, label %117, label %114

114:                                              ; preds = %108
  %115 = load ptr, ptr %18, align 8
  %116 = call zeroext i1 @try_consume(ptr noundef %115, i32 noundef 137)
  br label %117

117:                                              ; preds = %114, %108
  %118 = phi i1 [ false, %108 ], [ %116, %114 ]
  %119 = zext i1 %118 to i8
  store i8 %119, ptr %23, align 1
  %120 = load i8, ptr %22, align 1
  %121 = trunc i8 %120 to i1
  br i1 %121, label %125, label %122

122:                                              ; preds = %117
  %123 = load i8, ptr %23, align 1
  %124 = trunc i8 %123 to i1
  br label %125

125:                                              ; preds = %122, %117
  %126 = phi i1 [ true, %117 ], [ %124, %122 ]
  %127 = zext i1 %126 to i8
  store i8 %127, ptr %23, align 1
  %128 = load ptr, ptr %18, align 8
  %129 = call ptr @parse_optional_type(ptr noundef %128)
  store ptr %129, ptr %24, align 8
  %130 = load ptr, ptr %24, align 8
  store ptr %130, ptr %2, align 8
  %131 = load ptr, ptr %2, align 8
  %132 = icmp ne ptr %131, null
  br i1 %132, label %133, label %140

133:                                              ; preds = %125
  %134 = load ptr, ptr %2, align 8
  %135 = load i16, ptr %134, align 8
  %136 = lshr i16 %135, 3
  %137 = and i16 %136, 63
  %138 = zext i16 %137 to i32
  %139 = icmp ne i32 %138, 0
  br label %140

140:                                              ; preds = %133, %125
  %141 = phi i1 [ true, %125 ], [ %139, %133 ]
  br i1 %141, label %144, label %142

142:                                              ; preds = %140
  %143 = load ptr, ptr @poisoned_ast, align 8
  store ptr %143, ptr %17, align 8
  br label %281

144:                                              ; preds = %140
  %145 = load ptr, ptr %24, align 8
  store ptr %145, ptr %25, align 8
  %146 = load ptr, ptr %18, align 8
  %147 = load ptr, ptr %25, align 8
  %148 = call ptr @parse_decl_stmt_after_type(ptr noundef %146, ptr noundef %147)
  store ptr %148, ptr %26, align 8
  %149 = load ptr, ptr %26, align 8
  store ptr %149, ptr %16, align 8
  %150 = load ptr, ptr %16, align 8
  %151 = icmp eq ptr %150, null
  br i1 %151, label %158, label %152

152:                                              ; preds = %144
  %153 = load ptr, ptr %16, align 8
  %154 = getelementptr inbounds %struct.Ast_, ptr %153, i32 0, i32 2
  %155 = load i8, ptr %154, align 4
  %156 = zext i8 %155 to i32
  %157 = icmp ne i32 %156, 0
  br label %158

158:                                              ; preds = %152, %144
  %159 = phi i1 [ true, %144 ], [ %157, %152 ]
  br i1 %159, label %162, label %160

160:                                              ; preds = %158
  %161 = load ptr, ptr @poisoned_ast, align 8
  store ptr %161, ptr %17, align 8
  br label %281

162:                                              ; preds = %158
  %163 = load ptr, ptr %26, align 8
  store ptr %163, ptr %27, align 8
  br label %164

164:                                              ; preds = %162
  %165 = load ptr, ptr %18, align 8
  store ptr %165, ptr %8, align 8
  store i32 9, ptr %9, align 4
  %166 = load ptr, ptr %8, align 8
  %167 = getelementptr inbounds %struct.ParseContext_, ptr %166, i32 0, i32 1
  %168 = load i32, ptr %167, align 8
  %169 = load i32, ptr %9, align 4
  %170 = icmp eq i32 %168, %169
  br i1 %170, label %177, label %171

171:                                              ; preds = %164
  %172 = load ptr, ptr %18, align 8
  %173 = getelementptr inbounds %struct.ParseContext_, ptr %172, i32 0, i32 3
  %174 = getelementptr inbounds %union.SourceSpan, ptr %173, i32 0, i32 0
  %175 = load i64, ptr %174, align 8
  call void (i64, ptr, ...) @sema_error_at_after(i64 %175, ptr noundef @.str.11)
  %176 = load ptr, ptr @poisoned_ast, align 8
  store ptr %176, ptr %17, align 8
  br label %281

177:                                              ; preds = %164
  %178 = load ptr, ptr %18, align 8
  call void @advance(ptr noundef %178)
  br label %179

179:                                              ; preds = %177
  %180 = load ptr, ptr %27, align 8
  %181 = getelementptr inbounds %struct.Ast_, ptr %180, i32 0, i32 2
  %182 = load i8, ptr %181, align 4
  %183 = zext i8 %182 to i32
  %184 = icmp eq i32 %183, 15
  br i1 %184, label %185, label %221

185:                                              ; preds = %179
  %186 = load i8, ptr %22, align 1
  %187 = trunc i8 %186 to i1
  %188 = load ptr, ptr %27, align 8
  %189 = getelementptr inbounds %struct.Ast_, ptr %188, i32 0, i32 3
  %190 = load ptr, ptr %189, align 8
  %191 = getelementptr inbounds %struct.Decl_, ptr %190, i32 0, i32 11
  %192 = zext i1 %187 to i32
  %193 = load i32, ptr %191, align 8
  %194 = shl i32 %192, 18
  %195 = and i32 %193, -262145
  %196 = or i32 %195, %194
  store i32 %196, ptr %191, align 8
  %197 = load i8, ptr %23, align 1
  %198 = trunc i8 %197 to i1
  br i1 %198, label %202, label %199

199:                                              ; preds = %185
  %200 = load i8, ptr %22, align 1
  %201 = trunc i8 %200 to i1
  br label %202

202:                                              ; preds = %199, %185
  %203 = phi i1 [ true, %185 ], [ %201, %199 ]
  %204 = load ptr, ptr %27, align 8
  %205 = getelementptr inbounds %struct.Ast_, ptr %204, i32 0, i32 3
  %206 = load ptr, ptr %205, align 8
  %207 = getelementptr inbounds %struct.Decl_, ptr %206, i32 0, i32 11
  %208 = zext i1 %203 to i32
  %209 = load i32, ptr %207, align 8
  %210 = shl i32 %208, 11
  %211 = and i32 %209, -2049
  %212 = or i32 %211, %210
  store i32 %212, ptr %207, align 8
  %213 = load ptr, ptr %27, align 8
  %214 = getelementptr inbounds %struct.Ast_, ptr %213, i32 0, i32 3
  %215 = load ptr, ptr %214, align 8
  %216 = getelementptr inbounds %struct.Decl_, ptr %215, i32 0, i32 3
  %217 = load i64, ptr %216, align 8
  %218 = and i64 %217, -7169
  %219 = or i64 %218, 2048
  store i64 %219, ptr %216, align 8
  %220 = load ptr, ptr %27, align 8
  store ptr %220, ptr %17, align 8
  br label %281

221:                                              ; preds = %179
  %222 = load ptr, ptr %27, align 8
  %223 = getelementptr inbounds %struct.Ast_, ptr %222, i32 0, i32 3
  %224 = load ptr, ptr %223, align 8
  store ptr %224, ptr %28, align 8
  %225 = load ptr, ptr %28, align 8
  store ptr %225, ptr %14, align 8
  %226 = load ptr, ptr %14, align 8
  %227 = icmp ne ptr %226, null
  br i1 %227, label %229, label %228

228:                                              ; preds = %221
  store i32 0, ptr %13, align 4
  br label %234

229:                                              ; preds = %221
  %230 = load ptr, ptr %14, align 8
  store ptr %230, ptr %15, align 8
  %231 = load ptr, ptr %15, align 8
  %232 = getelementptr inbounds %struct.VHeader_, ptr %231, i64 -1
  %233 = load i32, ptr %232, align 4
  store i32 %233, ptr %13, align 4
  br label %234

234:                                              ; preds = %229, %228
  %235 = load i32, ptr %13, align 4
  store i32 %235, ptr %29, align 4
  store i32 0, ptr %30, align 4
  br label %236

236:                                              ; preds = %274, %234
  %237 = load i32, ptr %30, align 4
  %238 = load i32, ptr %29, align 4
  %239 = icmp ult i32 %237, %238
  br i1 %239, label %240, label %277

240:                                              ; preds = %236
  %241 = load ptr, ptr %28, align 8
  %242 = load i32, ptr %30, align 4
  %243 = zext i32 %242 to i64
  %244 = getelementptr inbounds ptr, ptr %241, i64 %243
  %245 = load ptr, ptr %244, align 8
  store ptr %245, ptr %31, align 8
  %246 = load i8, ptr %22, align 1
  %247 = trunc i8 %246 to i1
  %248 = load ptr, ptr %31, align 8
  %249 = getelementptr inbounds %struct.Decl_, ptr %248, i32 0, i32 11
  %250 = zext i1 %247 to i32
  %251 = load i32, ptr %249, align 8
  %252 = shl i32 %250, 18
  %253 = and i32 %251, -262145
  %254 = or i32 %253, %252
  store i32 %254, ptr %249, align 8
  %255 = load i8, ptr %23, align 1
  %256 = trunc i8 %255 to i1
  br i1 %256, label %260, label %257

257:                                              ; preds = %240
  %258 = load i8, ptr %22, align 1
  %259 = trunc i8 %258 to i1
  br label %260

260:                                              ; preds = %257, %240
  %261 = phi i1 [ true, %240 ], [ %259, %257 ]
  %262 = load ptr, ptr %31, align 8
  %263 = getelementptr inbounds %struct.Decl_, ptr %262, i32 0, i32 11
  %264 = zext i1 %261 to i32
  %265 = load i32, ptr %263, align 8
  %266 = shl i32 %264, 11
  %267 = and i32 %265, -2049
  %268 = or i32 %267, %266
  store i32 %268, ptr %263, align 8
  %269 = load ptr, ptr %31, align 8
  %270 = getelementptr inbounds %struct.Decl_, ptr %269, i32 0, i32 3
  %271 = load i64, ptr %270, align 8
  %272 = and i64 %271, -7169
  %273 = or i64 %272, 2048
  store i64 %273, ptr %270, align 8
  br label %274

274:                                              ; preds = %260
  %275 = load i32, ptr %30, align 4
  %276 = add i32 %275, 1
  store i32 %276, ptr %30, align 4
  br label %236, !llvm.loop !10

277:                                              ; preds = %236
  br label %278

278:                                              ; preds = %277
  br label %279

279:                                              ; preds = %278
  %280 = load ptr, ptr %27, align 8
  store ptr %280, ptr %17, align 8
  br label %281

281:                                              ; preds = %279, %202, %171, %160, %142, %106, %98, %64
  %282 = load ptr, ptr %17, align 8
  ret ptr %282
}