; Function Attrs: nounwind uwtable
define internal fastcc ptr @parse_declaration_stmt(ptr noundef %0) unnamed_addr #0 {
  %2 = getelementptr inbounds i8, ptr %0, i64 40
  %3 = load i32, ptr %2, align 8
  %4 = icmp eq i32 %3, 111
  br i1 %4, label %5, label %41

5:                                                ; preds = %1
  %6 = getelementptr inbounds i8, ptr %0, i64 48
  %7 = load i64, ptr %6, align 8
  %8 = tail call ptr @vmem_alloc(ptr noundef nonnull @ast_arena, i64 noundef 48) #5
  store i64 %7, ptr %8, align 8
  %9 = getelementptr inbounds i8, ptr %8, i64 12
  store i8 15, ptr %9, align 4
  %10 = tail call ptr @parse_const_declaration(ptr noundef nonnull %0, i1 noundef zeroext false, i1 noundef zeroext false) #5
  %.not85 = icmp eq ptr %10, null
  br i1 %.not85, label %.critedge, label %11

11:                                               ; preds = %5
  %12 = getelementptr inbounds i8, ptr %10, i64 24
  %13 = load i64, ptr %12, align 8
  %14 = and i64 %13, 127
  %.not86 = icmp eq i64 %14, 0
  br i1 %.not86, label %15, label %.critedge

15:                                               ; preds = %11
  %16 = load ptr, ptr @poisoned_ast, align 8
  br label %.loopexit

.critedge:                                        ; preds = %5, %11
  %17 = getelementptr inbounds i8, ptr %8, i64 16
  store ptr %10, ptr %17, align 8
  %18 = getelementptr inbounds i8, ptr %10, i64 24
  %19 = load i64, ptr %18, align 8
  %20 = and i64 %19, -7169
  %21 = or disjoint i64 %20, 2048
  store i64 %21, ptr %18, align 8
  %22 = getelementptr inbounds i8, ptr %0, i64 56
  %23 = load i64, ptr %8, align 8
  %24 = load i64, ptr %22, align 8
  %.not.unshifted.i = xor i64 %24, %23
  %.not.i = icmp ult i64 %.not.unshifted.i, 4294967296
  br i1 %.not.i, label %26, label %25

25:                                               ; preds = %.critedge
  %.sroa.33.0.extract.shift.i = lshr i64 %23, 16
  br label %extend_span_with_token.exit

26:                                               ; preds = %.critedge
  %.sroa.4.0.extract.shift.i = lshr i64 %23, 24
  %27 = trunc i64 %24 to i32
  %28 = lshr i32 %27, 24
  %29 = lshr i32 %27, 16
  %30 = trunc i64 %.sroa.4.0.extract.shift.i to i32
  %31 = sub i32 %29, %30
  %32 = add i32 %31, %28
  %33 = zext i32 %32 to i64
  br label %extend_span_with_token.exit

extend_span_with_token.exit:                      ; preds = %25, %26
  %.sroa.311.0.i = phi i64 [ %.sroa.33.0.extract.shift.i, %25 ], [ %33, %26 ]
  %.sroa.311.0.insert.ext.i = shl nuw i64 %.sroa.311.0.i, 16
  %.sroa.311.0.insert.shift.i = and i64 %.sroa.311.0.insert.ext.i, 16711680
  %34 = and i64 %23, -16711681
  %.sroa.010.0.insert.insert.i = or disjoint i64 %.sroa.311.0.insert.shift.i, %34
  store i64 %.sroa.010.0.insert.insert.i, ptr %8, align 8
  %35 = load i32, ptr %2, align 8
  %36 = icmp eq i32 %35, 9
  br i1 %36, label %40, label %37

37:                                               ; preds = %extend_span_with_token.exit
  %38 = load i64, ptr %22, align 8
  tail call void (i64, ptr, ...) @sema_error_at_after(i64 %38, ptr noundef nonnull @.str.11) #5
  %39 = load ptr, ptr @poisoned_ast, align 8
  br label %.loopexit

40:                                               ; preds = %extend_span_with_token.exit
  tail call void @advance(ptr noundef nonnull %0) #5
  br label %.loopexit

41:                                               ; preds = %1
  %42 = tail call zeroext i1 @try_consume(ptr noundef nonnull %0, i32 noundef 127) #5
  br i1 %42, label %45, label %43

43:                                               ; preds = %41
  %44 = tail call zeroext i1 @try_consume(ptr noundef nonnull %0, i32 noundef 137) #5
  br label %45

45:                                               ; preds = %43, %41
  %46 = phi i1 [ true, %41 ], [ %44, %43 ]
  %47 = tail call ptr @parse_optional_type(ptr noundef nonnull %0) #5
  %.not = icmp eq ptr %47, null
  br i1 %.not, label %.split78, label %49

.split78:                                         ; preds = %45
  %48 = tail call fastcc ptr @parse_decl_stmt_after_type(ptr noundef nonnull %0, ptr noundef null)
  br label %.critedge2

49:                                               ; preds = %45
  %50 = load i16, ptr %47, align 8
  %51 = and i16 %50, 504
  %.not82 = icmp eq i16 %51, 0
  br i1 %.not82, label %53, label %.split

.split:                                           ; preds = %49
  %52 = tail call fastcc ptr @parse_decl_stmt_after_type(ptr noundef nonnull %0, ptr noundef nonnull %47)
  br label %.critedge2

53:                                               ; preds = %49
  %54 = load ptr, ptr @poisoned_ast, align 8
  br label %.loopexit

.critedge2:                                       ; preds = %.split78, %.split
  %phi.call = phi ptr [ %52, %.split ], [ %48, %.split78 ]
  %55 = icmp eq ptr %phi.call, null
  br i1 %55, label %.critedge4, label %56

56:                                               ; preds = %.critedge2
  %57 = getelementptr inbounds i8, ptr %phi.call, i64 12
  %58 = load i8, ptr %57, align 4
  %.not83 = icmp eq i8 %58, 0
  br i1 %.not83, label %59, label %.critedge4

59:                                               ; preds = %56
  %60 = load ptr, ptr @poisoned_ast, align 8
  br label %.loopexit

.critedge4:                                       ; preds = %.critedge2, %56
  %61 = load i32, ptr %2, align 8
  %62 = icmp eq i32 %61, 9
  br i1 %62, label %67, label %63

63:                                               ; preds = %.critedge4
  %64 = getelementptr inbounds i8, ptr %0, i64 56
  %65 = load i64, ptr %64, align 8
  tail call void (i64, ptr, ...) @sema_error_at_after(i64 %65, ptr noundef nonnull @.str.11) #5
  %66 = load ptr, ptr @poisoned_ast, align 8
  br label %.loopexit

67:                                               ; preds = %.critedge4
  tail call void @advance(ptr noundef nonnull %0) #5
  %68 = getelementptr inbounds i8, ptr %phi.call, i64 12
  %69 = load i8, ptr %68, align 4
  %70 = icmp eq i8 %69, 15
  %71 = getelementptr inbounds i8, ptr %phi.call, i64 16
  %72 = load ptr, ptr %71, align 8
  br i1 %70, label %73, label %91

73:                                               ; preds = %67
  %74 = getelementptr inbounds i8, ptr %72, i64 80
  %75 = load i32, ptr %74, align 8
  %76 = select i1 %42, i32 262144, i32 0
  %77 = and i32 %75, -262145
  %78 = or disjoint i32 %77, %76
  store i32 %78, ptr %74, align 8
  %79 = or i1 %42, %46
  %80 = load ptr, ptr %71, align 8
  %81 = getelementptr inbounds i8, ptr %80, i64 80
  %82 = load i32, ptr %81, align 8
  %83 = select i1 %79, i32 2048, i32 0
  %84 = and i32 %82, -2049
  %85 = or disjoint i32 %84, %83
  store i32 %85, ptr %81, align 8
  %86 = load ptr, ptr %71, align 8
  %87 = getelementptr inbounds i8, ptr %86, i64 24
  %88 = load i64, ptr %87, align 8
  %89 = and i64 %88, -7169
  %90 = or disjoint i64 %89, 2048
  store i64 %90, ptr %87, align 8
  br label %.loopexit

91:                                               ; preds = %67
  %.not84 = icmp eq ptr %72, null
  br i1 %.not84, label %.loopexit, label %92

92:                                               ; preds = %91
  %93 = getelementptr inbounds i8, ptr %72, i64 -8
  %94 = load i32, ptr %93, align 4
  %.not88 = icmp eq i32 %94, 0
  br i1 %.not88, label %.loopexit, label %.lr.ph

.lr.ph:                                           ; preds = %92
  %95 = select i1 %42, i32 262144, i32 0
  %96 = or i1 %42, %46
  %97 = select i1 %96, i32 2048, i32 0
  %98 = or disjoint i32 %97, %95
  %wide.trip.count = zext i32 %94 to i64
  br label %99

99:                                               ; preds = %.lr.ph, %99
  %indvars.iv = phi i64 [ 0, %.lr.ph ], [ %indvars.iv.next, %99 ]
  %100 = getelementptr inbounds ptr, ptr %72, i64 %indvars.iv
  %101 = load ptr, ptr %100, align 8
  %102 = getelementptr inbounds i8, ptr %101, i64 80
  %103 = load i32, ptr %102, align 8
  %104 = and i32 %103, -264193
  %105 = or disjoint i32 %98, %104
  store i32 %105, ptr %102, align 8
  %106 = getelementptr inbounds i8, ptr %101, i64 24
  %107 = load i64, ptr %106, align 8
  %108 = and i64 %107, -7169
  %109 = or disjoint i64 %108, 2048
  store i64 %109, ptr %106, align 8
  %indvars.iv.next = add nuw nsw i64 %indvars.iv, 1
  %exitcond.not = icmp eq i64 %indvars.iv.next, %wide.trip.count
  br i1 %exitcond.not, label %.loopexit, label %99, !llvm.loop !11

.loopexit:                                        ; preds = %99, %91, %92, %73, %63, %59, %53, %40, %37, %15
  %.077 = phi ptr [ %8, %40 ], [ %39, %37 ], [ %16, %15 ], [ %phi.call, %73 ], [ %66, %63 ], [ %60, %59 ], [ %54, %53 ], [ %phi.call, %92 ], [ %phi.call, %91 ], [ %phi.call, %99 ]
  ret ptr %.077
}